; Function Attrs: mustprogress nounwind uwtable
define hidden noundef ptr @_ZN13SharedRuntime18get_resolved_entryEP10JavaThread12methodHandle(ptr nocapture noundef readonly %0, ptr nocapture noundef readonly %1) local_unnamed_addr #0 align 2 {
  %3 = getelementptr inbounds i8, ptr %0, i64 1544
  %4 = load i32, ptr %3, align 8
  %.not = icmp eq i32 %4, 0
  br i1 %.not, label %15, label %5

5:                                                ; preds = %2
  %6 = load ptr, ptr %1, align 8
  %7 = tail call noundef zeroext i1 @_ZNK6Method26is_method_handle_intrinsicEv(ptr noundef nonnull align 8 dereferenceable(88) %6) #18
  %8 = getelementptr inbounds i8, ptr %6, i64 52
  %9 = load i16, ptr %8, align 4
  %10 = and i16 %9, -2
  %spec.select.i.i = icmp eq i16 %10, 198
  %11 = select i1 %7, i1 true, i1 %spec.select.i.i
  br i1 %11, label %15, label %12

12:                                               ; preds = %5
  %13 = load ptr, ptr %1, align 8
  %14 = tail call noundef ptr @_ZN6Method13get_c2i_entryEv(ptr noundef nonnull align 8 dereferenceable(88) %13) #18
  br label %18

15:                                               ; preds = %5, %2
  %16 = load ptr, ptr %1, align 8
  %17 = tail call noundef ptr @_ZN6Method19verified_code_entryEv(ptr noundef nonnull align 8 dereferenceable(88) %16) #18
  br label %18

18:                                               ; preds = %15, %12
  %.0 = phi ptr [ %17, %15 ], [ %14, %12 ]
  ret ptr %.0
}